target datalayout = "e-m:e-p270:32:32-p271:32:32-p272:64:64-i64:64-i128:128-f80:128-n8:16:32:64-S128"
target triple = "x86_64-unknown-linux-gnu"

%struct.pcpu_hot = type { %union.anon.19 }
%union.anon.19 = type { %struct.anon.20, [16 x i8] }
%struct.anon.20 = type { ptr, i32, i32, i64, i64, ptr, i16, i8 }

@blk_tracer_enabled = internal unnamed_addr global i1 false, section ".data..read_mostly", align 1
@this_cpu_off = external dso_local global i64, section ".data..percpu..read_mostly", align 8
@pcpu_hot = external dso_local global %struct.pcpu_hot, section ".data..percpu..shared_aligned", align 64
@blk_tr = internal unnamed_addr global ptr null, align 8
@blktrace_seq = internal unnamed_addr global i32 1, section ".data..read_mostly", align 4
@ddir_act = internal unnamed_addr constant [2 x i32] [i32 65536, i32 131072], align 4
@__per_cpu_offset = external dso_local local_unnamed_addr global [64 x i64], align 16

; Function Attrs: fn_ret_thunk_extern nounwind null_pointer_is_valid
define internal fastcc void @__blk_add_trace(ptr nocapture noundef readonly %0, i64 noundef %1, i32 noundef %2, i32 noundef %3, i32 noundef %4, i32 noundef %5, i32 noundef %6, ptr nocapture noundef readonly %7, i64 noundef %8) unnamed_addr #0 align 16 {
  %10 = alloca i64, align 8
  %11 = alloca i64, align 8
  store i64 %8, ptr %11, align 8
  %12 = tail call i64 asm "movq %gs:${1:P}, $0", "=r,p,~{dirflag},~{fpsr},~{flags}"(ptr nonnull @pcpu_hot) #23, !srcloc !11
  %13 = inttoptr i64 %12 to ptr
  %14 = load i1, ptr @blk_tracer_enabled, align 1
  %15 = icmp eq i64 %8, 0
  %16 = select i1 %15, i64 0, i64 8
  %17 = and i32 %3, 255
  %18 = load i32, ptr %0, align 8
  %19 = icmp eq i32 %18, 2
  %20 = select i1 %19, i1 true, i1 %14
  br i1 %20, label %21, label %182, !prof !7

21:                                               ; preds = %9
  %22 = and i32 %3, 1
  %23 = zext nneg i32 %22 to i64
  %24 = getelementptr [2 x i32], ptr @ddir_act, i64 0, i64 %23
  %25 = load i32, ptr %24, align 4
  %26 = shl i32 %3, 8
  %27 = and i32 %26, 134742016
  %28 = shl i32 %3, 16
  %29 = and i32 %28, 268435456
  %30 = and i32 %3, 262144
  %31 = shl i32 %3, 14
  %32 = and i32 %31, -2147483648
  %33 = or i32 %30, %4
  %34 = or i32 %33, %27
  %35 = or i32 %34, %29
  %36 = or i32 %35, %32
  %37 = or i32 %36, %25
  %38 = trunc i32 %3 to i8
  switch i8 %38, label %41 [
    i8 5, label %39
    i8 3, label %39
  ]

39:                                               ; preds = %21, %21
  %40 = or i32 %37, 536870912
  br label %41

41:                                               ; preds = %39, %21
  %42 = phi i32 [ %40, %39 ], [ %37, %21 ]
  %43 = icmp eq i32 %17, 2
  %44 = or i32 %42, 262144
  %45 = select i1 %43, i32 %44, i32 %42
  %46 = or i32 %45, 256
  %47 = select i1 %15, i32 %45, i32 %46
  %48 = getelementptr inbounds i8, ptr %13, i64 1320
  %49 = load i32, ptr %48, align 8
  %50 = getelementptr inbounds i8, ptr %0, i64 32
  %51 = load i16, ptr %50, align 8
  %52 = zext i16 %51 to i32
  %53 = shl nuw i32 %52, 16
  %54 = and i32 %53, %47
  %55 = icmp eq i32 %54, 0
  br i1 %55, label %182, label %56

56:                                               ; preds = %41
  %57 = icmp eq i64 %1, 0
  br i1 %57, label %66, label %58

58:                                               ; preds = %56
  %59 = getelementptr inbounds i8, ptr %0, i64 40
  %60 = load i64, ptr %59, align 8
  %61 = icmp ugt i64 %60, %1
  br i1 %61, label %182, label %62

62:                                               ; preds = %58
  %63 = getelementptr inbounds i8, ptr %0, i64 48
  %64 = load i64, ptr %63, align 8
  %65 = icmp ult i64 %64, %1
  br i1 %65, label %182, label %66

66:                                               ; preds = %62, %56
  %67 = getelementptr inbounds i8, ptr %0, i64 56
  %68 = load i32, ptr %67, align 8
  %69 = icmp eq i32 %68, 0
  %70 = icmp eq i32 %68, %49
  %71 = or i1 %69, %70
  br i1 %71, label %72, label %182

72:                                               ; preds = %66
  %73 = tail call i32 asm sideeffect "movl %gs:$1, $0", "=r,*m,~{dirflag},~{fpsr},~{flags}"(ptr nonnull elementtype(i32) getelementptr inbounds (%struct.pcpu_hot, ptr @pcpu_hot, i64 0, i32 0, i32 0, i32 2)) #21, !srcloc !23
  br i1 %14, label %74, label %86

74:                                               ; preds = %72
  tail call void @tracing_record_cmdline(ptr noundef %13) #21
  %75 = load ptr, ptr @blk_tr, align 8
  %76 = getelementptr inbounds i8, ptr %75, i64 32
  %77 = load ptr, ptr %76, align 8
  %78 = tail call i32 @tracing_gen_ctx_irq_test(i32 noundef 1) #21
  %79 = sext i32 %6 to i64
  %80 = add nsw i64 %79, 48
  %81 = add nsw i64 %80, %16
  %82 = tail call ptr @trace_buffer_lock_reserve(ptr noundef %77, i32 noundef 13, i64 noundef %81, i32 noundef %78) #21
  %83 = icmp eq ptr %82, null
  br i1 %83, label %182, label %84

84:                                               ; preds = %74
  %85 = tail call ptr @ring_buffer_event_data(ptr noundef nonnull %82) #21
  br label %147

86:                                               ; preds = %72
  %87 = getelementptr inbounds i8, ptr %13, i64 960
  %88 = load i32, ptr %87, align 64
  %89 = load i32, ptr @blktrace_seq, align 4
  %90 = icmp eq i32 %88, %89
  br i1 %90, label %92, label %91, !prof !7

91:                                               ; preds = %86
  tail call fastcc void @trace_note_tsk(ptr noundef %13)
  br label %92

92:                                               ; preds = %91, %86
  call void @llvm.lifetime.start.p0(i64 8, ptr nonnull %10) #21
  store i64 0, ptr %10, align 8, !annotation !6
  call void asm sideeffect "# __raw_save_flags\0A\09pushf ; pop $0", "=*rm,~{memory},~{dirflag},~{fpsr},~{flags}"(ptr nonnull elementtype(i64) %10) #21, !srcloc !8
  %93 = load i64, ptr %10, align 8
  call void @llvm.lifetime.end.p0(i64 8, ptr nonnull %10) #21
  call void asm sideeffect "cli", "~{memory},~{dirflag},~{fpsr},~{flags}"() #21, !srcloc !9
  %94 = getelementptr inbounds i8, ptr %0, i64 8
  %95 = load ptr, ptr %94, align 8
  %96 = sext i32 %6 to i64
  %97 = add nsw i64 %96, 48
  %98 = add nsw i64 %97, %16
  call void asm "incl %gs:$0", "=*m,*m,~{dirflag},~{fpsr},~{flags}"(ptr nonnull elementtype(i32) getelementptr inbounds (%struct.pcpu_hot, ptr @pcpu_hot, i64 0, i32 0, i32 0, i32 1), ptr nonnull elementtype(i32) getelementptr inbounds (%struct.pcpu_hot, ptr @pcpu_hot, i64 0, i32 0, i32 0, i32 1)) #21, !srcloc !14
  call void asm sideeffect "", "~{memory},~{dirflag},~{fpsr},~{flags}"() #21, !srcloc !15
  %99 = getelementptr inbounds i8, ptr %95, i64 64
  %100 = load ptr, ptr %99, align 8
  %101 = call i64 asm "add %gs:$1, $0", "=r,*m,0,~{dirflag},~{fpsr},~{flags}"(ptr nonnull elementtype(i64) @this_cpu_off, ptr %100) #22, !srcloc !16
  %102 = inttoptr i64 %101 to ptr
  %103 = load ptr, ptr %102, align 8
  %104 = getelementptr inbounds i8, ptr %103, i64 16
  %105 = load i64, ptr %104, align 16
  %106 = add i64 %105, %98
  %107 = getelementptr inbounds i8, ptr %103, i64 40
  %108 = load ptr, ptr %107, align 8
  %109 = getelementptr inbounds i8, ptr %108, i64 8
  %110 = load i64, ptr %109, align 8
  %111 = icmp ugt i64 %106, %110
  br i1 %111, label %112, label %115, !prof !17

112:                                              ; preds = %92
  %113 = call i64 @relay_switch_subbuf(ptr noundef %103, i64 noundef %98) #21
  %114 = icmp eq i64 %113, 0
  br i1 %114, label %122, label %115

115:                                              ; preds = %112, %92
  %116 = phi i64 [ %113, %112 ], [ %98, %92 ]
  %117 = getelementptr inbounds i8, ptr %103, i64 8
  %118 = load ptr, ptr %117, align 8
  %119 = load i64, ptr %104, align 16
  %120 = getelementptr i8, ptr %118, i64 %119
  %121 = add i64 %119, %116
  store i64 %121, ptr %104, align 16
  br label %122

122:                                              ; preds = %115, %112
  %123 = phi ptr [ %120, %115 ], [ null, %112 ]
  call void asm sideeffect "", "~{memory},~{dirflag},~{fpsr},~{flags}"() #21, !srcloc !18
  %124 = call i8 asm sideeffect "decl %gs:$0\0A\09/* output condition code e*/\0A", "=*m,={@cce},*m,~{memory},~{dirflag},~{fpsr},~{flags}"(ptr nonnull elementtype(i32) getelementptr inbounds (%struct.pcpu_hot, ptr @pcpu_hot, i64 0, i32 0, i32 0, i32 1), ptr nonnull elementtype(i32) getelementptr inbounds (%struct.pcpu_hot, ptr @pcpu_hot, i64 0, i32 0, i32 0, i32 1)) #21, !srcloc !19
  %125 = icmp ult i8 %124, 2
  call void @llvm.assume(i1 %125)
  %126 = icmp eq i8 %124, 0
  br i1 %126, label %130, label %127, !prof !7

127:                                              ; preds = %122
  %128 = call i64 @llvm.read_register.i64(metadata !0)
  %129 = call i64 asm sideeffect "call __SCT__preempt_schedule", "={rsp},{rsp},~{dirflag},~{fpsr},~{flags}"(i64 %128) #21, !srcloc !20
  call void @llvm.write_register.i64(metadata !0, i64 %129)
  br label %130

130:                                              ; preds = %127, %122
  %131 = icmp eq ptr %123, null
  br i1 %131, label %177, label %132

132:                                              ; preds = %130
  %133 = getelementptr inbounds i8, ptr %0, i64 16
  %134 = load ptr, ptr %133, align 8
  %135 = ptrtoint ptr %134 to i64
  %136 = sext i32 %73 to i64
  %137 = getelementptr [64 x i64], ptr @__per_cpu_offset, i64 0, i64 %136
  %138 = load i64, ptr %137, align 8
  %139 = add i64 %138, %135
  %140 = inttoptr i64 %139 to ptr
  store i32 1700885511, ptr %123, align 8
  %141 = load i64, ptr %140, align 8
  %142 = add i64 %141, 1
  store i64 %142, ptr %140, align 8
  %143 = trunc i64 %142 to i32
  %144 = getelementptr inbounds i8, ptr %123, i64 4
  store i32 %143, ptr %144, align 4
  %145 = call i64 @ktime_get() #21
  %146 = getelementptr inbounds i8, ptr %123, i64 8
  store i64 %145, ptr %146, align 8
  br label %147

147:                                              ; preds = %132, %84
  %148 = phi i32 [ %78, %84 ], [ 0, %132 ]
  %149 = phi i64 [ 0, %84 ], [ %93, %132 ]
  %150 = phi ptr [ %85, %84 ], [ %123, %132 ]
  %151 = phi ptr [ %77, %84 ], [ null, %132 ]
  %152 = phi ptr [ %82, %84 ], [ null, %132 ]
  %153 = getelementptr inbounds i8, ptr %150, i64 40
  store i32 %73, ptr %153, align 8
  %154 = getelementptr inbounds i8, ptr %150, i64 32
  store i32 %49, ptr %154, align 8
  %155 = getelementptr inbounds i8, ptr %150, i64 16
  store i64 %1, ptr %155, align 8
  %156 = getelementptr inbounds i8, ptr %150, i64 24
  store i32 %2, ptr %156, align 8
  %157 = getelementptr inbounds i8, ptr %150, i64 28
  store i32 %47, ptr %157, align 4
  %158 = getelementptr inbounds i8, ptr %0, i64 60
  %159 = load i32, ptr %158, align 4
  %160 = getelementptr inbounds i8, ptr %150, i64 36
  store i32 %159, ptr %160, align 4
  %161 = trunc i32 %5 to i16
  %162 = getelementptr inbounds i8, ptr %150, i64 44
  store i16 %161, ptr %162, align 4
  %163 = sext i32 %6 to i64
  %164 = add nsw i64 %16, %163
  %165 = trunc i64 %164 to i16
  %166 = getelementptr inbounds i8, ptr %150, i64 46
  store i16 %165, ptr %166, align 2
  br i1 %15, label %169, label %167

167:                                              ; preds = %147
  %168 = getelementptr i8, ptr %150, i64 48
  call void @llvm.memcpy.p0.p0.i64(ptr align 1 %168, ptr nonnull align 8 %11, i64 %16, i1 false)
  br label %169

169:                                              ; preds = %167, %147
  %170 = icmp eq i32 %6, 0
  br i1 %170, label %174, label %171

171:                                              ; preds = %169
  %172 = getelementptr i8, ptr %150, i64 48
  %173 = getelementptr i8, ptr %172, i64 %16
  call void @llvm.memcpy.p0.p0.i64(ptr align 1 %173, ptr align 1 %7, i64 %163, i1 false)
  br label %174

174:                                              ; preds = %171, %169
  br i1 %14, label %175, label %177

175:                                              ; preds = %174
  %176 = load ptr, ptr @blk_tr, align 8
  call void @trace_buffer_unlock_commit_regs(ptr noundef %176, ptr noundef %151, ptr noundef %152, i32 noundef %148, ptr noundef null) #21
  br label %182

177:                                              ; preds = %174, %130
  %178 = phi i64 [ %149, %174 ], [ %93, %130 ]
  %179 = and i64 %178, 512
  %180 = icmp eq i64 %179, 0
  br i1 %180, label %182, label %181

181:                                              ; preds = %177
  call void asm sideeffect "sti", "~{memory},~{dirflag},~{fpsr},~{flags}"() #21, !srcloc !12
  br label %182

182:                                              ; preds = %181, %177, %175, %74, %66, %62, %58, %41, %9
  ret void
}