; Function Attrs: fn_ret_thunk_extern nounwind null_pointer_is_valid
define internal fastcc void @__blk_add_trace(ptr nocapture noundef readonly %0, i64 noundef %1, i32 noundef %2, i32 noundef %3, i32 noundef %4, i32 noundef %5, i32 noundef %6, ptr nocapture noundef readonly %7, i64 noundef %8) unnamed_addr #0 align 16 {
  %10 = alloca i64, align 8
  %11 = tail call i64 asm "movq %gs:${1:P}, $0", "=r,p,~{dirflag},~{fpsr},~{flags}"(ptr nonnull @pcpu_hot) #23, !srcloc !11
  %12 = inttoptr i64 %11 to ptr
  %13 = load i1, ptr @blk_tracer_enabled, align 1
  %14 = icmp eq i64 %8, 0
  %15 = select i1 %14, i64 0, i64 8
  %16 = and i32 %3, 255
  %17 = load i32, ptr %0, align 8
  %18 = icmp eq i32 %17, 2
  %19 = select i1 %18, i1 true, i1 %13
  br i1 %19, label %20, label %178, !prof !6

20:                                               ; preds = %9
  %21 = and i32 %3, 1
  %22 = zext nneg i32 %21 to i64
  %23 = getelementptr [2 x i32], ptr @ddir_act, i64 0, i64 %22
  %24 = load i32, ptr %23, align 4
  %25 = shl i32 %3, 8
  %26 = and i32 %25, 134742016
  %27 = shl i32 %3, 16
  %28 = and i32 %27, 268435456
  %29 = and i32 %3, 262144
  %30 = shl i32 %3, 14
  %31 = and i32 %30, -2147483648
  %32 = or i32 %29, %4
  %33 = or i32 %32, %26
  %34 = or i32 %33, %28
  %35 = or i32 %34, %31
  %36 = or i32 %35, %24
  %37 = trunc i32 %3 to i8
  switch i8 %37, label %40 [
    i8 5, label %38
    i8 3, label %38
  ]

38:                                               ; preds = %20, %20
  %39 = or i32 %36, 536870912
  br label %40

40:                                               ; preds = %38, %20
  %41 = phi i32 [ %39, %38 ], [ %36, %20 ]
  %42 = icmp eq i32 %16, 2
  %43 = or i32 %41, 262144
  %44 = select i1 %42, i32 %43, i32 %41
  %45 = or i32 %44, 256
  %46 = select i1 %14, i32 %44, i32 %45
  %47 = getelementptr inbounds i8, ptr %12, i64 1320
  %48 = load i32, ptr %47, align 8
  %49 = getelementptr inbounds i8, ptr %0, i64 32
  %50 = load i16, ptr %49, align 8
  %51 = zext i16 %50 to i32
  %52 = shl nuw i32 %51, 16
  %53 = and i32 %52, %46
  %54 = icmp eq i32 %53, 0
  br i1 %54, label %178, label %55

55:                                               ; preds = %40
  %56 = icmp eq i64 %1, 0
  br i1 %56, label %65, label %57

57:                                               ; preds = %55
  %58 = getelementptr inbounds i8, ptr %0, i64 40
  %59 = load i64, ptr %58, align 8
  %60 = icmp ugt i64 %59, %1
  br i1 %60, label %178, label %61

61:                                               ; preds = %57
  %62 = getelementptr inbounds i8, ptr %0, i64 48
  %63 = load i64, ptr %62, align 8
  %64 = icmp ult i64 %63, %1
  br i1 %64, label %178, label %65

65:                                               ; preds = %61, %55
  %66 = getelementptr inbounds i8, ptr %0, i64 56
  %67 = load i32, ptr %66, align 8
  %68 = icmp eq i32 %67, 0
  %69 = icmp eq i32 %67, %48
  %70 = or i1 %68, %69
  br i1 %70, label %71, label %178

71:                                               ; preds = %65
  %72 = tail call i32 asm sideeffect "movl %gs:$1, $0", "=r,*m,~{dirflag},~{fpsr},~{flags}"(ptr nonnull elementtype(i32) getelementptr inbounds (%struct.pcpu_hot, ptr @pcpu_hot, i64 0, i32 0, i32 0, i32 2)) #21, !srcloc !23
  br i1 %13, label %73, label %85

73:                                               ; preds = %71
  tail call void @tracing_record_cmdline(ptr noundef %12) #21
  %74 = load ptr, ptr @blk_tr, align 8
  %75 = getelementptr inbounds i8, ptr %74, i64 32
  %76 = load ptr, ptr %75, align 8
  %77 = tail call i32 @tracing_gen_ctx_irq_test(i32 noundef 1) #21
  %78 = sext i32 %6 to i64
  %79 = add nsw i64 %78, 48
  %80 = add nsw i64 %79, %15
  %81 = tail call ptr @trace_buffer_lock_reserve(ptr noundef %76, i32 noundef 13, i64 noundef %80, i32 noundef %77) #21
  %82 = icmp eq ptr %81, null
  br i1 %82, label %178, label %83

83:                                               ; preds = %73
  %84 = tail call ptr @ring_buffer_event_data(ptr noundef nonnull %81) #21
  br label %144

85:                                               ; preds = %71
  %86 = getelementptr inbounds i8, ptr %12, i64 960
  %87 = load i32, ptr %86, align 64
  %88 = load i32, ptr @blktrace_seq, align 4
  %89 = icmp eq i32 %87, %88
  br i1 %89, label %91, label %90, !prof !6

90:                                               ; preds = %85
  tail call fastcc void @trace_note_tsk(ptr noundef %12)
  br label %91

91:                                               ; preds = %90, %85
  call void @llvm.lifetime.start.p0(i64 8, ptr nonnull %10) #21
  store i64 0, ptr %10, align 8, !annotation !7
  call void asm sideeffect "# __raw_save_flags\0A\09pushf ; pop $0", "=*rm,~{memory},~{dirflag},~{fpsr},~{flags}"(ptr nonnull elementtype(i64) %10) #21, !srcloc !8
  %92 = load i64, ptr %10, align 8
  call void @llvm.lifetime.end.p0(i64 8, ptr nonnull %10) #21
  call void asm sideeffect "cli", "~{memory},~{dirflag},~{fpsr},~{flags}"() #21, !srcloc !9
  %93 = getelementptr inbounds i8, ptr %0, i64 8
  %94 = load ptr, ptr %93, align 8
  %95 = sext i32 %6 to i64
  %96 = add nsw i64 %95, 48
  %97 = add nsw i64 %96, %15
  call void asm "incl %gs:$0", "=*m,*m,~{dirflag},~{fpsr},~{flags}"(ptr nonnull elementtype(i32) getelementptr inbounds (%struct.pcpu_hot, ptr @pcpu_hot, i64 0, i32 0, i32 0, i32 1), ptr nonnull elementtype(i32) getelementptr inbounds (%struct.pcpu_hot, ptr @pcpu_hot, i64 0, i32 0, i32 0, i32 1)) #21, !srcloc !14
  call void asm sideeffect "", "~{memory},~{dirflag},~{fpsr},~{flags}"() #21, !srcloc !15
  %98 = getelementptr inbounds i8, ptr %94, i64 64
  %99 = load ptr, ptr %98, align 8
  %100 = call i64 asm "add %gs:$1, $0", "=r,*m,0,~{dirflag},~{fpsr},~{flags}"(ptr nonnull elementtype(i64) @this_cpu_off, ptr %99) #22, !srcloc !16
  %101 = inttoptr i64 %100 to ptr
  %102 = load ptr, ptr %101, align 8
  %103 = getelementptr inbounds i8, ptr %102, i64 16
  %104 = load i64, ptr %103, align 16
  %105 = add i64 %104, %97
  %106 = getelementptr inbounds i8, ptr %102, i64 40
  %107 = load ptr, ptr %106, align 8
  %108 = getelementptr inbounds i8, ptr %107, i64 8
  %109 = load i64, ptr %108, align 8
  %110 = icmp ugt i64 %105, %109
  br i1 %110, label %111, label %114, !prof !17

111:                                              ; preds = %91
  %112 = call i64 @relay_switch_subbuf(ptr noundef %102, i64 noundef %97) #21
  %113 = icmp eq i64 %112, 0
  br i1 %113, label %119, label %._crit_edge

._crit_edge:                                      ; preds = %111
  %.pre = load i64, ptr %103, align 16
  %.pre4 = add i64 %.pre, %112
  br label %114

114:                                              ; preds = %._crit_edge, %91
  %.pre-phi5 = phi i64 [ %.pre4, %._crit_edge ], [ %105, %91 ]
  %115 = phi i64 [ %.pre, %._crit_edge ], [ %104, %91 ]
  %116 = getelementptr inbounds i8, ptr %102, i64 8
  %117 = load ptr, ptr %116, align 8
  %118 = getelementptr i8, ptr %117, i64 %115
  store i64 %.pre-phi5, ptr %103, align 16
  br label %119

119:                                              ; preds = %114, %111
  %120 = phi ptr [ %118, %114 ], [ null, %111 ]
  call void asm sideeffect "", "~{memory},~{dirflag},~{fpsr},~{flags}"() #21, !srcloc !18
  %121 = call i8 asm sideeffect "decl %gs:$0\0A\09/* output condition code e*/\0A", "=*m,={@cce},*m,~{memory},~{dirflag},~{fpsr},~{flags}"(ptr nonnull elementtype(i32) getelementptr inbounds (%struct.pcpu_hot, ptr @pcpu_hot, i64 0, i32 0, i32 0, i32 1), ptr nonnull elementtype(i32) getelementptr inbounds (%struct.pcpu_hot, ptr @pcpu_hot, i64 0, i32 0, i32 0, i32 1)) #21, !srcloc !19
  %122 = icmp ult i8 %121, 2
  call void @llvm.assume(i1 %122)
  %123 = icmp eq i8 %121, 0
  br i1 %123, label %127, label %124, !prof !6

124:                                              ; preds = %119
  %125 = call i64 @llvm.read_register.i64(metadata !0)
  %126 = call i64 asm sideeffect "call __SCT__preempt_schedule", "={rsp},{rsp},~{dirflag},~{fpsr},~{flags}"(i64 %125) #21, !srcloc !20
  call void @llvm.write_register.i64(metadata !0, i64 %126)
  br label %127

127:                                              ; preds = %124, %119
  %128 = icmp eq ptr %120, null
  br i1 %128, label %173, label %129

129:                                              ; preds = %127
  %130 = getelementptr inbounds i8, ptr %0, i64 16
  %131 = load ptr, ptr %130, align 8
  %132 = ptrtoint ptr %131 to i64
  %133 = sext i32 %72 to i64
  %134 = getelementptr [64 x i64], ptr @__per_cpu_offset, i64 0, i64 %133
  %135 = load i64, ptr %134, align 8
  %136 = add i64 %135, %132
  %137 = inttoptr i64 %136 to ptr
  store i32 1700885511, ptr %120, align 8
  %138 = load i64, ptr %137, align 8
  %139 = add i64 %138, 1
  store i64 %139, ptr %137, align 8
  %140 = trunc i64 %139 to i32
  %141 = getelementptr inbounds i8, ptr %120, i64 4
  store i32 %140, ptr %141, align 4
  %142 = call i64 @ktime_get() #21
  %143 = getelementptr inbounds i8, ptr %120, i64 8
  store i64 %142, ptr %143, align 8
  br label %144

144:                                              ; preds = %129, %83
  %.pre-phi = phi i64 [ %95, %129 ], [ %78, %83 ]
  %145 = phi i32 [ 0, %129 ], [ %77, %83 ]
  %146 = phi i64 [ %92, %129 ], [ 0, %83 ]
  %147 = phi ptr [ %120, %129 ], [ %84, %83 ]
  %148 = phi ptr [ null, %129 ], [ %76, %83 ]
  %149 = phi ptr [ null, %129 ], [ %81, %83 ]
  %150 = getelementptr inbounds i8, ptr %147, i64 40
  store i32 %72, ptr %150, align 8
  %151 = getelementptr inbounds i8, ptr %147, i64 32
  store i32 %48, ptr %151, align 8
  %152 = getelementptr inbounds i8, ptr %147, i64 16
  store i64 %1, ptr %152, align 8
  %153 = getelementptr inbounds i8, ptr %147, i64 24
  store i32 %2, ptr %153, align 8
  %154 = getelementptr inbounds i8, ptr %147, i64 28
  store i32 %46, ptr %154, align 4
  %155 = getelementptr inbounds i8, ptr %0, i64 60
  %156 = load i32, ptr %155, align 4
  %157 = getelementptr inbounds i8, ptr %147, i64 36
  store i32 %156, ptr %157, align 4
  %158 = trunc i32 %5 to i16
  %159 = getelementptr inbounds i8, ptr %147, i64 44
  store i16 %158, ptr %159, align 4
  %160 = add nsw i64 %15, %.pre-phi
  %161 = trunc i64 %160 to i16
  %162 = getelementptr inbounds i8, ptr %147, i64 46
  store i16 %161, ptr %162, align 2
  br i1 %14, label %165, label %163

163:                                              ; preds = %144
  %164 = getelementptr i8, ptr %147, i64 48
  store i64 %8, ptr %164, align 1
  br label %165

165:                                              ; preds = %163, %144
  %166 = icmp eq i32 %6, 0
  br i1 %166, label %170, label %167

167:                                              ; preds = %165
  %168 = getelementptr i8, ptr %147, i64 48
  %169 = getelementptr i8, ptr %168, i64 %15
  call void @llvm.memcpy.p0.p0.i64(ptr align 1 %169, ptr align 1 %7, i64 %.pre-phi, i1 false)
  br label %170

170:                                              ; preds = %167, %165
  br i1 %13, label %171, label %173

171:                                              ; preds = %170
  %172 = load ptr, ptr @blk_tr, align 8
  call void @trace_buffer_unlock_commit_regs(ptr noundef %172, ptr noundef %148, ptr noundef %149, i32 noundef %145, ptr noundef null) #21
  br label %178

173:                                              ; preds = %170, %127
  %174 = phi i64 [ %146, %170 ], [ %92, %127 ]
  %175 = and i64 %174, 512
  %176 = icmp eq i64 %175, 0
  br i1 %176, label %178, label %177

177:                                              ; preds = %173
  call void asm sideeffect "sti", "~{memory},~{dirflag},~{fpsr},~{flags}"() #21, !srcloc !12
  br label %178

178:                                              ; preds = %177, %173, %171, %73, %65, %61, %57, %40, %9
  ret void
}